CCS PCM C Compiler, Version 4.038, 33467               29-abr-10 17:16

               Filename: C:\Users\Fabio Dela Bruna\Documents\Curso de Ciência da Computação\7º Semestre\Arquitetura de Microcontroladores - Prof. Fernando Kestering Longo\Exercícios\programas_c\lista2\exercicio03.lst

               ROM used: 88 words (1%)
                         Largest free fragment is 2048
               RAM used: 9 (2%) at main() level
                         10 (3%) worst case
               Stack:    1 locations

*
0000:  MOVLW  00
0001:  MOVWF  0A
0002:  GOTO   019
0003:  NOP
.................... #include <16F877A.h> 
.................... //////// Standard Header file for the PIC16F877A device //////////////// 
.................... #device PIC16F877A 
.................... #list 
....................  
.................... #fuses xt, nolvp, protect 
.................... #use delay(clock=4Mhz) 
0004:  MOVLW  24
0005:  MOVWF  04
0006:  BCF    03.7
0007:  MOVF   00,W
0008:  BTFSC  03.2
0009:  GOTO   018
000A:  MOVLW  01
000B:  MOVWF  78
000C:  CLRF   77
000D:  DECFSZ 77,F
000E:  GOTO   00D
000F:  DECFSZ 78,F
0010:  GOTO   00C
0011:  MOVLW  4A
0012:  MOVWF  77
0013:  DECFSZ 77,F
0014:  GOTO   013
0015:  GOTO   016
0016:  DECFSZ 00,F
0017:  GOTO   00A
0018:  RETLW  00
....................  
.................... void main() { 
0019:  CLRF   04
001A:  BCF    03.7
001B:  MOVLW  1F
001C:  ANDWF  03,F
001D:  BSF    03.5
001E:  BSF    1F.0
001F:  BSF    1F.1
0020:  BSF    1F.2
0021:  BCF    1F.3
0022:  MOVLW  07
0023:  MOVWF  1C
....................  
....................    int saida; 
....................    int i; 
....................  
....................    while (true) { 
....................     
....................       saida = 0; 
0024:  BCF    03.5
0025:  CLRF   21
....................        
....................       for(i=0; i<8; i++) { 
0026:  CLRF   22
0027:  MOVF   22,W
0028:  SUBLW  07
0029:  BTFSS  03.0
002A:  GOTO   03D
....................          saida = saida*2+1; 
002B:  BCF    03.0
002C:  RLF    21,W
002D:  ADDLW  01
002E:  MOVWF  21
....................          output_b(saida); 
002F:  BSF    03.5
0030:  CLRF   06
0031:  BCF    03.5
0032:  MOVF   21,W
0033:  MOVWF  06
....................          delay_ms(1000); 
0034:  MOVLW  04
0035:  MOVWF  23
0036:  MOVLW  FA
0037:  MOVWF  24
0038:  CALL   004
0039:  DECFSZ 23,F
003A:  GOTO   036
....................       } 
003B:  INCF   22,F
003C:  GOTO   027
....................        
....................       for(i=0; i<8; i++) { 
003D:  CLRF   22
003E:  MOVF   22,W
003F:  SUBLW  07
0040:  BTFSS  03.0
0041:  GOTO   056
....................          saida = (saida-1)/2; 
0042:  MOVLW  01
0043:  SUBWF  21,W
0044:  MOVWF  77
0045:  BCF    03.0
0046:  RRF    77,W
0047:  MOVWF  21
....................          output_b(saida); 
0048:  BSF    03.5
0049:  CLRF   06
004A:  BCF    03.5
004B:  MOVF   21,W
004C:  MOVWF  06
....................          delay_ms(1000); 
004D:  MOVLW  04
004E:  MOVWF  23
004F:  MOVLW  FA
0050:  MOVWF  24
0051:  CALL   004
0052:  DECFSZ 23,F
0053:  GOTO   04F
....................       } 
0054:  INCF   22,F
0055:  GOTO   03E
....................   
....................    } 
0056:  GOTO   025
....................  
.................... } 
0057:  SLEEP

Configuration Fuses:
   Word  1: 1F71   XT NOWDT PUT PROTECT NODEBUG BROWNOUT NOLVP NOCPD NOWRT
