CCS PCM C Compiler, Version 4.038, 33467               30-abr-10 08:12

               Filename: C:\Users\Fabio Dela Bruna\Documents\Curso de Ciência da Computação\7º Semestre\Arquitetura de Microcontroladores - Prof. Fernando Kestering Longo\Exercícios\programas_c\lista2\exercicio04.lst

               ROM used: 89 words (1%)
                         Largest free fragment is 2048
               RAM used: 9 (2%) at main() level
                         10 (3%) worst case
               Stack:    1 locations

*
0000:  MOVLW  00
0001:  MOVWF  0A
0002:  GOTO   019
0003:  NOP
.................... #include <16F877A.h> 
.................... //////// Standard Header file for the PIC16F877A device //////////////// 
.................... #device PIC16F877A 
.................... #list 
....................  
.................... #fuses xt, nolvp, protect 
.................... #use delay(clock=4Mhz) 
0004:  MOVLW  24
0005:  MOVWF  04
0006:  BCF    03.7
0007:  MOVF   00,W
0008:  BTFSC  03.2
0009:  GOTO   018
000A:  MOVLW  01
000B:  MOVWF  78
000C:  CLRF   77
000D:  DECFSZ 77,F
000E:  GOTO   00D
000F:  DECFSZ 78,F
0010:  GOTO   00C
0011:  MOVLW  4A
0012:  MOVWF  77
0013:  DECFSZ 77,F
0014:  GOTO   013
0015:  GOTO   016
0016:  DECFSZ 00,F
0017:  GOTO   00A
0018:  RETLW  00
....................  
.................... void main() { 
0019:  CLRF   04
001A:  BCF    03.7
001B:  MOVLW  1F
001C:  ANDWF  03,F
001D:  BSF    03.5
001E:  BSF    1F.0
001F:  BSF    1F.1
0020:  BSF    1F.2
0021:  BCF    1F.3
0022:  MOVLW  07
0023:  MOVWF  1C
....................  
....................    int saida; 
....................    int i; 
....................    int tempo = 1000; 
0024:  MOVLW  E8
0025:  BCF    03.5
0026:  MOVWF  23
....................  
....................    while (true) { 
....................     
....................       saida = 0; 
0027:  CLRF   21
....................        
....................       for(i=0; i<8; i++) { 
0028:  CLRF   22
0029:  MOVF   22,W
002A:  SUBLW  07
002B:  BTFSS  03.0
002C:  GOTO   03F
....................          if(saida!=0) 
002D:  MOVF   21,F
002E:  BTFSC  03.2
002F:  GOTO   033
....................             saida *= 2; 
0030:  BCF    03.0
0031:  RLF    21,F
....................          else 
0032:  GOTO   035
....................             saida = 1; 
0033:  MOVLW  01
0034:  MOVWF  21
....................          output_b(saida); 
0035:  BSF    03.5
0036:  CLRF   06
0037:  BCF    03.5
0038:  MOVF   21,W
0039:  MOVWF  06
....................          delay_ms(tempo); 
003A:  MOVF   23,W
003B:  MOVWF  24
003C:  CALL   004
....................       } 
003D:  INCF   22,F
003E:  GOTO   029
....................        
....................       output_b(0b00000000); // desliga todos os bits da porta b. 
003F:  BSF    03.5
0040:  CLRF   06
0041:  BCF    03.5
0042:  CLRF   06
....................       delay_ms(tempo); 
0043:  MOVF   23,W
0044:  MOVWF  24
0045:  CALL   004
....................        
....................       for(i=0; i<=8; i++) { 
0046:  CLRF   22
0047:  MOVF   22,W
0048:  SUBLW  08
0049:  BTFSS  03.0
004A:  GOTO   057
....................          output_b(saida); 
004B:  BSF    03.5
004C:  CLRF   06
004D:  BCF    03.5
004E:  MOVF   21,W
004F:  MOVWF  06
....................          saida /= 2; 
0050:  BCF    03.0
0051:  RRF    21,F
....................          delay_ms(tempo); 
0052:  MOVF   23,W
0053:  MOVWF  24
0054:  CALL   004
....................       } 
0055:  INCF   22,F
0056:  GOTO   047
....................   
....................    } 
0057:  GOTO   027
....................  
.................... } 
0058:  SLEEP

Configuration Fuses:
   Word  1: 1F71   XT NOWDT PUT PROTECT NODEBUG BROWNOUT NOLVP NOCPD NOWRT
