CCS PCM C Compiler, Version 4.038, 33467               30-abr-10 10:31

               Filename: C:\Users\Fabio Dela Bruna\Documents\Curso de Ciência da Computação\7º Semestre\Arquitetura de Microcontroladores - Prof. Fernando Kestering Longo\Exercícios\programas_c\teste_display\teste1.lst

               ROM used: 135 words (2%)
                         Largest free fragment is 2048
               RAM used: 21 (6%) at main() level
                         22 (6%) worst case
               Stack:    1 locations

*
0000:  MOVLW  00
0001:  MOVWF  0A
0002:  GOTO   019
0003:  NOP
.................... #include <16F877A.h> 
.................... //////// Standard Header file for the PIC16F877A device //////////////// 
.................... #device PIC16F877A 
.................... #list 
....................  
.................... #fuses xt, nolvp, protect 
.................... #use delay(clock=4Mhz) 
....................  
.................... byte display [10]; 
....................  
.................... void main() { 
0019:  CLRF   04
001A:  BCF    03.7
001B:  MOVLW  1F
001C:  ANDWF  03,F
001D:  BSF    03.5
001E:  BSF    1F.0
001F:  BSF    1F.1
0020:  BSF    1F.2
0021:  BCF    1F.3
0022:  MOVLW  07
0023:  MOVWF  1C
....................  
....................    int i = 0; 
*
0027:  CLRF   2B
....................    int valor = 69; 
0028:  MOVLW  45
0029:  MOVWF  2C
....................  
....................    display[0]=0b0111111; 
002A:  MOVLW  3F
002B:  MOVWF  20
....................    display[1]=0b0000110; 
002C:  MOVLW  06
002D:  MOVWF  21
....................    display[2]=0b1011011; 
002E:  MOVLW  5B
002F:  MOVWF  22
....................    display[3]=0b1001111; 
0030:  MOVLW  4F
0031:  MOVWF  23
....................    display[4]=0b1100110; 
0032:  MOVLW  66
0033:  MOVWF  24
....................    display[5]=0b1101101; 
0034:  MOVLW  6D
0035:  MOVWF  25
....................    display[6]=0b1111101; 
0036:  MOVLW  7D
0037:  MOVWF  26
....................    display[7]=0b0100111; 
0038:  MOVLW  27
0039:  MOVWF  27
....................    display[8]=0b1111111; 
003A:  MOVLW  7F
003B:  MOVWF  28
....................    display[9]=0b1101111; 
003C:  MOVLW  6F
003D:  MOVWF  29
....................  
....................    while(true) { 
....................      
....................       for(i=0; i<10; i++) { 
003E:  CLRF   2B
003F:  MOVF   2B,W
0040:  SUBLW  09
0041:  BTFSS  03.0
0042:  GOTO   085
....................          output_b(display[valor/10]); 
0043:  MOVF   2C,W
0044:  MOVWF  2D
0045:  MOVLW  0A
0046:  MOVWF  2E
0047:  CALL   004
0048:  MOVLW  20
0049:  ADDWF  78,W
004A:  MOVWF  04
004B:  BCF    03.7
004C:  MOVF   00,W
004D:  MOVWF  2E
004E:  BSF    03.5
004F:  CLRF   06
0050:  BCF    03.5
0051:  MOVF   2E,W
0052:  MOVWF  06
....................          output_low(pin_c0); 
*
0024:  MOVLW  FF
0025:  BCF    03.5
0026:  MOVWF  2A
*
0053:  BCF    2A.0
0054:  MOVF   2A,W
0055:  BSF    03.5
0056:  MOVWF  07
0057:  BCF    03.5
0058:  BCF    07.0
....................          delay_us(100); 
0059:  MOVLW  21
005A:  MOVWF  77
005B:  DECFSZ 77,F
005C:  GOTO   05B
....................          output_high(pin_c0); 
005D:  BCF    2A.0
005E:  MOVF   2A,W
005F:  BSF    03.5
0060:  MOVWF  07
0061:  BCF    03.5
0062:  BSF    07.0
....................           
....................          output_b(display[valor%10]); 
0063:  MOVF   2C,W
0064:  MOVWF  2D
0065:  MOVLW  0A
0066:  MOVWF  2E
0067:  CALL   004
0068:  MOVLW  20
0069:  ADDWF  77,W
006A:  MOVWF  04
006B:  BCF    03.7
006C:  MOVF   00,W
006D:  MOVWF  2E
006E:  BSF    03.5
006F:  CLRF   06
0070:  BCF    03.5
0071:  MOVF   2E,W
0072:  MOVWF  06
....................          output_low(pin_c1); 
0073:  BCF    2A.1
0074:  MOVF   2A,W
0075:  BSF    03.5
0076:  MOVWF  07
0077:  BCF    03.5
0078:  BCF    07.1
....................          delay_us(100); 
0079:  MOVLW  21
007A:  MOVWF  77
007B:  DECFSZ 77,F
007C:  GOTO   07B
....................          output_high(pin_c1); 
007D:  BCF    2A.1
007E:  MOVF   2A,W
007F:  BSF    03.5
0080:  MOVWF  07
0081:  BCF    03.5
0082:  BSF    07.1
....................       } 
0083:  INCF   2B,F
0084:  GOTO   03F
....................        
....................    } 
0085:  GOTO   03E
....................  
.................... } 
0086:  SLEEP

Configuration Fuses:
   Word  1: 1F71   XT NOWDT PUT PROTECT NODEBUG BROWNOUT NOLVP NOCPD NOWRT
